(dp0
S'Jonquille'
p1
(lp2
F0.011203
aS'2016-09-11 05:39:11'
p3
aI1
asS'devenish'
p4
(lp5
F0.059247
aS'2016-09-11 06:32:55'
p6
aI1
asS'team0x4d2'
p7
(lp8
F0.21941
aS'2016-09-11 04:33:11'
p9
aI0
asS'DataNinja'
p10
(lp11
F33.250222
aS'2016-09-11 04:33:11'
p12
aI0
asS'Melting'
p13
(lp14
F0.026211
aS'2016-09-11 06:12:31'
p15
aI2
asS'CUTM'
p16
(lp17
F0.06146
aS'2016-09-11 06:12:31'
p18
aI1
asS'three-d-universum-nerds'
p19
(lp20
F1.289324
aS'2016-09-11 04:33:11'
p21
aI0
asS'teamtabs'
p22
(lp23
F0.127541
aS'2016-09-11 07:25:25'
p24
aI1
asS'Cantab'
p25
(lp26
F0.0112
aS'2016-09-11 05:54:38'
p27
aI4
asS'lexis_army'
p28
(lp29
F0.039221
aS'2016-09-11 04:33:11'
p30
aI0
asS'ml_noobs'
p31
(lp32
F0.067503
aS'2016-09-11 04:33:11'
p33
aI0
asS'Frequentists_ISIKolkata'
p34
(lp35
F0.13905
aS'2016-09-11 04:33:11'
p36
aI0
asS'We_just_want_our_name_to_be'
p37
(lp38
F0.050217
aS'2016-09-11 04:33:11'
p39
aI0
asS'MVA2016'
p40
(lp41
F0.012656
aS'2016-09-11 04:33:11'
p42
aI0
asS'PondHoppers'
p43
(lp44
F0.16211
aS'2016-09-11 07:42:45'
p45
aI2
asS'Brosio2BeWild'
p46
(lp47
F0.010623
aS'2016-09-11 04:37:35'
p48
aI1
asS'Russian_Data_Mafia'
p49
(lp50
F0.056937
aS'2016-09-11 04:33:11'
p51
aI0
asS'rohannaidu'
p52
(lp53
F0.016256
aS'2016-09-11 04:33:11'
p54
aI0
asS'DSG_PolytechNique'
p55
(lp56
F0.156064
aS'2016-09-11 04:33:11'
p57
aI0
asS'MAtrixReloaded'
p58
(lp59
F0.051562
aS'2016-09-11 04:33:11'
p60
aI0
as.